target datalayout = "e-m:e-p270:32:32-p271:32:32-p272:64:64-i64:64-i128:128-f80:128-n8:16:32:64-S128"
target triple = "x86_64-unknown-linux-gnu"

%"class.icu_75::UVector" = type { %"class.icu_75::UObject", i32, i32, ptr, ptr, ptr }
%"class.icu_75::UObject" = type { ptr }

$_ZNK6icu_757UVector4sizeEv = comdat any

@_ZZN6icu_756UStack16getStaticClassIDEvE7classID = internal global i8 0, align 1
@_ZTVN6icu_756UStackE = unnamed_addr constant { [5 x ptr] } { [5 x ptr] [ptr null, ptr @_ZTIN6icu_756UStackE, ptr @_ZN6icu_756UStackD1Ev, ptr @_ZN6icu_756UStackD0Ev, ptr @_ZNK6icu_756UStack17getDynamicClassIDEv] }, align 8
@_ZTVN10__cxxabiv120__si_class_type_infoE = external global [0 x ptr]
@_ZTSN6icu_756UStackE = constant [17 x i8] c"N6icu_756UStackE\00", align 1
@_ZTIN6icu_757UVectorE = external constant ptr
@_ZTIN6icu_756UStackE = constant { ptr, ptr, ptr } { ptr getelementptr inbounds (ptr, ptr @_ZTVN10__cxxabiv120__si_class_type_infoE, i64 2), ptr @_ZTSN6icu_756UStackE, ptr @_ZTIN6icu_757UVectorE }, align 8

@_ZN6icu_756UStackC1ER10UErrorCode = unnamed_addr alias void (ptr, ptr), ptr @_ZN6icu_756UStackC2ER10UErrorCode
@_ZN6icu_756UStackC1EiR10UErrorCode = unnamed_addr alias void (ptr, i32, ptr), ptr @_ZN6icu_756UStackC2EiR10UErrorCode
@_ZN6icu_756UStackC1EPFvPvEPFa8UElementS4_ER10UErrorCode = unnamed_addr alias void (ptr, ptr, ptr, ptr), ptr @_ZN6icu_756UStackC2EPFvPvEPFa8UElementS4_ER10UErrorCode
@_ZN6icu_756UStackC1EPFvPvEPFa8UElementS4_EiR10UErrorCode = unnamed_addr alias void (ptr, ptr, ptr, i32, ptr), ptr @_ZN6icu_756UStackC2EPFvPvEPFa8UElementS4_EiR10UErrorCode
@_ZN6icu_756UStackD1Ev = unnamed_addr alias void (ptr), ptr @_ZN6icu_756UStackD2Ev

; Function Attrs: mustprogress nounwind uwtable
define noundef ptr @_ZN6icu_756UStack16getStaticClassIDEv() #0 align 2 {
entry:
  ret ptr @_ZZN6icu_756UStack16getStaticClassIDEvE7classID
}

; Function Attrs: mustprogress nounwind uwtable
define noundef ptr @_ZNK6icu_756UStack17getDynamicClassIDEv(ptr noundef nonnull align 8 dereferenceable(40) %this) unnamed_addr #0 align 2 {
entry:
  %this.addr = alloca ptr, align 8
  store ptr %this, ptr %this.addr, align 8
  %call = call noundef ptr @_ZN6icu_756UStack16getStaticClassIDEv()
  ret ptr %call
}

; Function Attrs: mustprogress uwtable
define void @_ZN6icu_756UStackC2ER10UErrorCode(ptr noundef nonnull align 8 dereferenceable(40) %this, ptr noundef nonnull align 4 dereferenceable(4) %status) unnamed_addr #1 align 2 {
entry:
  %this.addr = alloca ptr, align 8
  %status.addr = alloca ptr, align 8
  store ptr %this, ptr %this.addr, align 8
  store ptr %status, ptr %status.addr, align 8
  %this1 = load ptr, ptr %this.addr, align 8
  %0 = load ptr, ptr %status.addr, align 8
  call void @_ZN6icu_757UVectorC2ER10UErrorCode(ptr noundef nonnull align 8 dereferenceable(40) %this1, ptr noundef nonnull align 4 dereferenceable(4) %0)
  store ptr getelementptr inbounds ({ [5 x ptr] }, ptr @_ZTVN6icu_756UStackE, i32 0, i32 0, i32 2), ptr %this1, align 8
  ret void
}

declare void @_ZN6icu_757UVectorC2ER10UErrorCode(ptr noundef nonnull align 8 dereferenceable(40), ptr noundef nonnull align 4 dereferenceable(4)) unnamed_addr #2

; Function Attrs: mustprogress uwtable
define void @_ZN6icu_756UStackC2EiR10UErrorCode(ptr noundef nonnull align 8 dereferenceable(40) %this, i32 noundef %initialCapacity, ptr noundef nonnull align 4 dereferenceable(4) %status) unnamed_addr #1 align 2 {
entry:
  %this.addr = alloca ptr, align 8
  %initialCapacity.addr = alloca i32, align 4
  %status.addr = alloca ptr, align 8
  store ptr %this, ptr %this.addr, align 8
  store i32 %initialCapacity, ptr %initialCapacity.addr, align 4
  store ptr %status, ptr %status.addr, align 8
  %this1 = load ptr, ptr %this.addr, align 8
  %0 = load i32, ptr %initialCapacity.addr, align 4
  %1 = load ptr, ptr %status.addr, align 8
  call void @_ZN6icu_757UVectorC2EiR10UErrorCode(ptr noundef nonnull align 8 dereferenceable(40) %this1, i32 noundef %0, ptr noundef nonnull align 4 dereferenceable(4) %1)
  store ptr getelementptr inbounds ({ [5 x ptr] }, ptr @_ZTVN6icu_756UStackE, i32 0, i32 0, i32 2), ptr %this1, align 8
  ret void
}

declare void @_ZN6icu_757UVectorC2EiR10UErrorCode(ptr noundef nonnull align 8 dereferenceable(40), i32 noundef, ptr noundef nonnull align 4 dereferenceable(4)) unnamed_addr #2

; Function Attrs: mustprogress uwtable
define void @_ZN6icu_756UStackC2EPFvPvEPFa8UElementS4_ER10UErrorCode(ptr noundef nonnull align 8 dereferenceable(40) %this, ptr noundef %d, ptr noundef %c, ptr noundef nonnull align 4 dereferenceable(4) %status) unnamed_addr #1 align 2 {
entry:
  %this.addr = alloca ptr, align 8
  %d.addr = alloca ptr, align 8
  %c.addr = alloca ptr, align 8
  %status.addr = alloca ptr, align 8
  store ptr %this, ptr %this.addr, align 8
  store ptr %d, ptr %d.addr, align 8
  store ptr %c, ptr %c.addr, align 8
  store ptr %status, ptr %status.addr, align 8
  %this1 = load ptr, ptr %this.addr, align 8
  %0 = load ptr, ptr %d.addr, align 8
  %1 = load ptr, ptr %c.addr, align 8
  %2 = load ptr, ptr %status.addr, align 8
  call void @_ZN6icu_757UVectorC2EPFvPvEPFa8UElementS4_ER10UErrorCode(ptr noundef nonnull align 8 dereferenceable(40) %this1, ptr noundef %0, ptr noundef %1, ptr noundef nonnull align 4 dereferenceable(4) %2)
  store ptr getelementptr inbounds ({ [5 x ptr] }, ptr @_ZTVN6icu_756UStackE, i32 0, i32 0, i32 2), ptr %this1, align 8
  ret void
}

declare void @_ZN6icu_757UVectorC2EPFvPvEPFa8UElementS4_ER10UErrorCode(ptr noundef nonnull align 8 dereferenceable(40), ptr noundef, ptr noundef, ptr noundef nonnull align 4 dereferenceable(4)) unnamed_addr #2

; Function Attrs: mustprogress uwtable
define void @_ZN6icu_756UStackC2EPFvPvEPFa8UElementS4_EiR10UErrorCode(ptr noundef nonnull align 8 dereferenceable(40) %this, ptr noundef %d, ptr noundef %c, i32 noundef %initialCapacity, ptr noundef nonnull align 4 dereferenceable(4) %status) unnamed_addr #1 align 2 {
entry:
  %this.addr = alloca ptr, align 8
  %d.addr = alloca ptr, align 8
  %c.addr = alloca ptr, align 8
  %initialCapacity.addr = alloca i32, align 4
  %status.addr = alloca ptr, align 8
  store ptr %this, ptr %this.addr, align 8
  store ptr %d, ptr %d.addr, align 8
  store ptr %c, ptr %c.addr, align 8
  store i32 %initialCapacity, ptr %initialCapacity.addr, align 4
  store ptr %status, ptr %status.addr, align 8
  %this1 = load ptr, ptr %this.addr, align 8
  %0 = load ptr, ptr %d.addr, align 8
  %1 = load ptr, ptr %c.addr, align 8
  %2 = load i32, ptr %initialCapacity.addr, align 4
  %3 = load ptr, ptr %status.addr, align 8
  call void @_ZN6icu_757UVectorC2EPFvPvEPFa8UElementS4_EiR10UErrorCode(ptr noundef nonnull align 8 dereferenceable(40) %this1, ptr noundef %0, ptr noundef %1, i32 noundef %2, ptr noundef nonnull align 4 dereferenceable(4) %3)
  store ptr getelementptr inbounds ({ [5 x ptr] }, ptr @_ZTVN6icu_756UStackE, i32 0, i32 0, i32 2), ptr %this1, align 8
  ret void
}

declare void @_ZN6icu_757UVectorC2EPFvPvEPFa8UElementS4_EiR10UErrorCode(ptr noundef nonnull align 8 dereferenceable(40), ptr noundef, ptr noundef, i32 noundef, ptr noundef nonnull align 4 dereferenceable(4)) unnamed_addr #2

; Function Attrs: mustprogress nounwind uwtable
define void @_ZN6icu_756UStackD2Ev(ptr noundef nonnull align 8 dereferenceable(40) %this) unnamed_addr #0 align 2 {
entry:
  %this.addr = alloca ptr, align 8
  store ptr %this, ptr %this.addr, align 8
  %this1 = load ptr, ptr %this.addr, align 8
  call void @_ZN6icu_757UVectorD2Ev(ptr noundef nonnull align 8 dereferenceable(40) %this1) #4
  ret void
}

; Function Attrs: nounwind
declare void @_ZN6icu_757UVectorD2Ev(ptr noundef nonnull align 8 dereferenceable(40)) unnamed_addr #3

; Function Attrs: mustprogress nounwind uwtable
define void @_ZN6icu_756UStackD0Ev(ptr noundef nonnull align 8 dereferenceable(40) %this) unnamed_addr #0 align 2 {
entry:
  %this.addr = alloca ptr, align 8
  store ptr %this, ptr %this.addr, align 8
  %this1 = load ptr, ptr %this.addr, align 8
  call void @_ZN6icu_756UStackD1Ev(ptr noundef nonnull align 8 dereferenceable(40) %this1) #4
  call void @_ZN6icu_757UMemorydlEPv(ptr noundef %this1) #4
  ret void
}

; Function Attrs: nounwind
declare void @_ZN6icu_757UMemorydlEPv(ptr noundef) #3

; Function Attrs: mustprogress uwtable
define noundef ptr @_ZN6icu_756UStack3popEv(ptr noundef nonnull align 8 dereferenceable(40) %this) #1 align 2 {
entry:
  %this.addr = alloca ptr, align 8
  %n = alloca i32, align 4
  %result = alloca ptr, align 8
  store ptr %this, ptr %this.addr, align 8
  %this1 = load ptr, ptr %this.addr, align 8
  %call = call noundef i32 @_ZNK6icu_757UVector4sizeEv(ptr noundef nonnull align 8 dereferenceable(40) %this1)
  %sub = sub nsw i32 %call, 1
  store i32 %sub, ptr %n, align 4
  store ptr null, ptr %result, align 8
  %0 = load i32, ptr %n, align 4
  %cmp = icmp sge i32 %0, 0
  br i1 %cmp, label %if.then, label %if.end

if.then:                                          ; preds = %entry
  %1 = load i32, ptr %n, align 4
  %call2 = call noundef ptr @_ZN6icu_757UVector15orphanElementAtEi(ptr noundef nonnull align 8 dereferenceable(40) %this1, i32 noundef %1)
  store ptr %call2, ptr %result, align 8
  br label %if.end

if.end:                                           ; preds = %if.then, %entry
  %2 = load ptr, ptr %result, align 8
  ret ptr %2
}

; Function Attrs: mustprogress nounwind uwtable
define linkonce_odr noundef i32 @_ZNK6icu_757UVector4sizeEv(ptr noundef nonnull align 8 dereferenceable(40) %this) #0 comdat align 2 {
entry:
  %this.addr = alloca ptr, align 8
  store ptr %this, ptr %this.addr, align 8
  %this1 = load ptr, ptr %this.addr, align 8
  %count = getelementptr inbounds %"class.icu_75::UVector", ptr %this1, i32 0, i32 1
  %0 = load i32, ptr %count, align 8
  ret i32 %0
}

declare noundef ptr @_ZN6icu_757UVector15orphanElementAtEi(ptr noundef nonnull align 8 dereferenceable(40), i32 noundef) #2

; Function Attrs: mustprogress uwtable
define noundef i32 @_ZN6icu_756UStack4popiEv(ptr noundef nonnull align 8 dereferenceable(40) %this) #1 align 2 {
entry:
  %this.addr = alloca ptr, align 8
  %n = alloca i32, align 4
  %result = alloca i32, align 4
  store ptr %this, ptr %this.addr, align 8
  %this1 = load ptr, ptr %this.addr, align 8
  %call = call noundef i32 @_ZNK6icu_757UVector4sizeEv(ptr noundef nonnull align 8 dereferenceable(40) %this1)
  %sub = sub nsw i32 %call, 1
  store i32 %sub, ptr %n, align 4
  store i32 0, ptr %result, align 4
  %0 = load i32, ptr %n, align 4
  %cmp = icmp sge i32 %0, 0
  br i1 %cmp, label %if.then, label %if.end

if.then:                                          ; preds = %entry
  %1 = load i32, ptr %n, align 4
  %call2 = call noundef i32 @_ZNK6icu_757UVector10elementAtiEi(ptr noundef nonnull align 8 dereferenceable(40) %this1, i32 noundef %1)
  store i32 %call2, ptr %result, align 4
  %2 = load i32, ptr %n, align 4
  call void @_ZN6icu_757UVector15removeElementAtEi(ptr noundef nonnull align 8 dereferenceable(40) %this1, i32 noundef %2)
  br label %if.end

if.end:                                           ; preds = %if.then, %entry
  %3 = load i32, ptr %result, align 4
  ret i32 %3
}

declare noundef i32 @_ZNK6icu_757UVector10elementAtiEi(ptr noundef nonnull align 8 dereferenceable(40), i32 noundef) #2

declare void @_ZN6icu_757UVector15removeElementAtEi(ptr noundef nonnull align 8 dereferenceable(40), i32 noundef) #2

; Function Attrs: mustprogress uwtable
define noundef i32 @_ZNK6icu_756UStack6searchEPv(ptr noundef nonnull align 8 dereferenceable(40) %this, ptr noundef %obj) #1 align 2 {
entry:
  %this.addr = alloca ptr, align 8
  %obj.addr = alloca ptr, align 8
  %i = alloca i32, align 4
  store ptr %this, ptr %this.addr, align 8
  store ptr %obj, ptr %obj.addr, align 8
  %this1 = load ptr, ptr %this.addr, align 8
  %0 = load ptr, ptr %obj.addr, align 8
  %call = call noundef i32 @_ZNK6icu_757UVector7indexOfEPvi(ptr noundef nonnull align 8 dereferenceable(40) %this1, ptr noundef %0, i32 noundef 0)
  store i32 %call, ptr %i, align 4
  %1 = load i32, ptr %i, align 4
  %cmp = icmp sge i32 %1, 0
  br i1 %cmp, label %cond.true, label %cond.false

cond.true:                                        ; preds = %entry
  %call2 = call noundef i32 @_ZNK6icu_757UVector4sizeEv(ptr noundef nonnull align 8 dereferenceable(40) %this1)
  %2 = load i32, ptr %i, align 4
  %sub = sub nsw i32 %call2, %2
  br label %cond.end

cond.false:                                       ; preds = %entry
  %3 = load i32, ptr %i, align 4
  br label %cond.end

cond.end:                                         ; preds = %cond.false, %cond.true
  %cond = phi i32 [ %sub, %cond.true ], [ %3, %cond.false ]
  ret i32 %cond
}

declare noundef i32 @_ZNK6icu_757UVector7indexOfEPvi(ptr noundef nonnull align 8 dereferenceable(40), ptr noundef, i32 noundef) #2


!llvm.module.flags = !{!0, !1, !2, !3}

!0 = !{i32 1, !"wchar_size", i32 4}
!1 = !{i32 8, !"PIC Level", i32 2}
!2 = !{i32 7, !"uwtable", i32 2}
!3 = !{i32 7, !"frame-pointer", i32 2}
